; Function Attrs: mustprogress nofree norecurse nosync nounwind willreturn memory(argmem: write) uwtable
define void @_ZN7rocksdb22FullFilterBlockBuilderC2EPKNS_14SliceTransformEbPNS_17FilterBitsBuilderE(ptr noundef nonnull writeonly align 8 captures(none) dereferenceable(40) initializes((0, 25), (32, 40)) %0, ptr noundef %1, i1 noundef zeroext %2, ptr noundef %3) unnamed_addr #3 align 2 personality ptr @__gxx_personality_v0 {
_ZNSt10unique_ptrIN7rocksdb17FilterBitsBuilderESt14default_deleteIS1_EE5resetEPS1_.exit:
  %4 = zext i1 %2 to i8
  store ptr getelementptr inbounds nuw inrange(-16, 80) (i8, ptr @_ZTVN7rocksdb22FullFilterBlockBuilderE, i64 16), ptr %0, align 8, !tbaa !11
  %5 = getelementptr inbounds nuw i8, ptr %0, i64 8
  %6 = getelementptr inbounds nuw i8, ptr %0, i64 16
  store ptr %1, ptr %6, align 8, !tbaa !13
  %7 = getelementptr inbounds nuw i8, ptr %0, i64 24
  store i8 %4, ptr %7, align 8, !tbaa !32
  %8 = getelementptr inbounds nuw i8, ptr %0, i64 32
  store ptr null, ptr %8, align 8, !tbaa !33
  store ptr %3, ptr %5, align 8, !tbaa !34
  ret void
}